; Function Attrs: mustprogress nofree nounwind willreturn memory(write, argmem: none, inaccessiblemem: readwrite) uwtable
define dso_local noalias noundef ptr @onig_node_new_alt(ptr noundef %0, ptr noundef %1) local_unnamed_addr #16 {
  %calloc.i = tail call noalias noundef dereferenceable_or_null(72) ptr @calloc(i64 1, i64 72)
  %3 = icmp eq ptr %calloc.i, null
  br i1 %3, label %7, label %4

4:                                                ; preds = %2
  store i32 8, ptr %calloc.i, align 8, !tbaa !10
  %5 = getelementptr inbounds nuw i8, ptr %calloc.i, i64 16
  store ptr %0, ptr %5, align 8, !tbaa !10
  %6 = getelementptr inbounds nuw i8, ptr %calloc.i, i64 24
  store ptr %1, ptr %6, align 8, !tbaa !10
  br label %7

7:                                                ; preds = %2, %4
  ret ptr %calloc.i
}